target datalayout = "e-m:e-p270:32:32-p271:32:32-p272:64:64-i64:64-i128:128-f80:128-n8:16:32:64-S128"
target triple = "x86_64-pc-linux-gnu"

%struct.evthread_lock_callbacks = type { i32, i32, ptr, ptr, ptr, ptr }
%struct.event = type { %struct.event_callback, %union.anon.0, i32, i16, i16, ptr, %union.anon.2, %struct.timeval }
%struct.event_callback = type { %struct.anon, i16, i8, i8, %union.anon, ptr }
%struct.anon = type { ptr, ptr }
%union.anon = type { ptr }
%union.anon.0 = type { %struct.anon.1 }
%struct.anon.1 = type { ptr, ptr }
%union.anon.2 = type { %struct.anon.3 }
%struct.anon.3 = type { %struct.anon.4, %struct.timeval }
%struct.anon.4 = type { ptr, ptr }
%struct.timeval = type { i64, i64 }
%struct.sockaddr_storage = type { i16, [118 x i8], i64 }
%struct.in_addr = type { i32 }
%struct.evdns_base = type { ptr, ptr, ptr, i32, ptr, i32, i32, i32, i32, %struct.timeval, i32, i32, i32, i32, i16, %struct.timeval, i16, %struct.timeval, %struct.sockaddr_storage, i32, %struct.timeval, i32, i32, i32, i32, i32, i32, ptr, %struct.hosts_list, %struct.evdns_tree, ptr, i32, i32, i32, i32 }
%struct.hosts_list = type { ptr, ptr }
%struct.evdns_tree = type { ptr }
%struct.nameserver = type { i32, ptr, %struct.sockaddr_storage, i32, i32, i32, %struct.event, ptr, ptr, %struct.event, ptr, i8, i8, i8, ptr, i32 }
%struct.request = type { ptr, i16, i8, i32, i32, i32, ptr, ptr, ptr, %struct.event, i16, i8, ptr, ptr, ptr }
%struct.evdns_request = type { ptr, ptr, i32, %struct.event_callback, ptr, ptr, i8, i8, i32, i32, %struct.reply, i32, ptr, ptr, i32, i16 }
%struct.reply = type { i32, i8, i32, %union.anon.7, ptr }
%union.anon.7 = type { ptr }

@evthread_lock_fns_ = external global %struct.evthread_lock_callbacks, align 8
@.str = private unnamed_addr constant [25 x i8] c"%d.%d.%d.%d.in-addr.arpa\00", align 1
@.str.4 = private unnamed_addr constant [35 x i8] c"Resolve requested for %s (reverse)\00", align 1
@evthread_lock_debugging_enabled_ = external global i32, align 4

; Function Attrs: nounwind uwtable
define internal void @evdns_request_insert(ptr noundef %0, ptr noundef %1) #0 {
  %3 = alloca ptr, align 8
  %4 = alloca ptr, align 8
  store ptr %0, ptr %3, align 8
  store ptr %1, ptr %4, align 8
  br label %5

5:                                                ; preds = %2
  %6 = load ptr, ptr %3, align 8
  %7 = getelementptr inbounds nuw %struct.request, ptr %6, i32 0, i32 13
  %8 = load ptr, ptr %7, align 8
  %9 = getelementptr inbounds nuw %struct.evdns_base, ptr %8, i32 0, i32 30
  %10 = load ptr, ptr %9, align 8
  %11 = icmp ne ptr %10, null
  br i1 %11, label %12, label %18

12:                                               ; preds = %5
  %13 = load i32, ptr @evthread_lock_debugging_enabled_, align 4
  %14 = icmp ne i32 %13, 0
  br i1 %14, label %15, label %18

15:                                               ; preds = %12
  br label %16

16:                                               ; preds = %15
  br label %17

17:                                               ; preds = %16
  br label %18

18:                                               ; preds = %17, %12, %5
  br label %19

19:                                               ; preds = %18
  br label %20

20:                                               ; preds = %19
  br label %21

21:                                               ; preds = %20
  %22 = load ptr, ptr %4, align 8
  %23 = load ptr, ptr %22, align 8
  %24 = icmp ne ptr %23, null
  br i1 %24, label %33, label %25

25:                                               ; preds = %21
  %26 = load ptr, ptr %3, align 8
  %27 = load ptr, ptr %4, align 8
  store ptr %26, ptr %27, align 8
  %28 = load ptr, ptr %3, align 8
  %29 = load ptr, ptr %3, align 8
  %30 = getelementptr inbounds nuw %struct.request, ptr %29, i32 0, i32 8
  store ptr %28, ptr %30, align 8
  %31 = load ptr, ptr %3, align 8
  %32 = getelementptr inbounds nuw %struct.request, ptr %31, i32 0, i32 7
  store ptr %28, ptr %32, align 8
  br label %53

33:                                               ; preds = %21
  %34 = load ptr, ptr %4, align 8
  %35 = load ptr, ptr %34, align 8
  %36 = getelementptr inbounds nuw %struct.request, ptr %35, i32 0, i32 8
  %37 = load ptr, ptr %36, align 8
  %38 = load ptr, ptr %3, align 8
  %39 = getelementptr inbounds nuw %struct.request, ptr %38, i32 0, i32 8
  store ptr %37, ptr %39, align 8
  %40 = load ptr, ptr %3, align 8
  %41 = load ptr, ptr %3, align 8
  %42 = getelementptr inbounds nuw %struct.request, ptr %41, i32 0, i32 8
  %43 = load ptr, ptr %42, align 8
  %44 = getelementptr inbounds nuw %struct.request, ptr %43, i32 0, i32 7
  store ptr %40, ptr %44, align 8
  %45 = load ptr, ptr %4, align 8
  %46 = load ptr, ptr %45, align 8
  %47 = load ptr, ptr %3, align 8
  %48 = getelementptr inbounds nuw %struct.request, ptr %47, i32 0, i32 7
  store ptr %46, ptr %48, align 8
  %49 = load ptr, ptr %3, align 8
  %50 = load ptr, ptr %4, align 8
  %51 = load ptr, ptr %50, align 8
  %52 = getelementptr inbounds nuw %struct.request, ptr %51, i32 0, i32 8
  store ptr %49, ptr %52, align 8
  br label %53

53:                                               ; preds = %33, %25
  ret void
}

; Function Attrs: nounwind uwtable
define internal void @request_submit(ptr noundef %0) #0 {
  %2 = alloca ptr, align 8
  %3 = alloca ptr, align 8
  store ptr %0, ptr %2, align 8
  call void @llvm.lifetime.start.p0(i64 8, ptr %3) #10
  %4 = load ptr, ptr %2, align 8
  %5 = getelementptr inbounds nuw %struct.request, ptr %4, i32 0, i32 13
  %6 = load ptr, ptr %5, align 8
  store ptr %6, ptr %3, align 8
  br label %7

7:                                                ; preds = %1
  %8 = load ptr, ptr %3, align 8
  %9 = getelementptr inbounds nuw %struct.evdns_base, ptr %8, i32 0, i32 30
  %10 = load ptr, ptr %9, align 8
  %11 = icmp ne ptr %10, null
  br i1 %11, label %12, label %19

12:                                               ; preds = %7
  %13 = load i32, ptr @evthread_lock_debugging_enabled_, align 4
  %14 = icmp ne i32 %13, 0
  br i1 %14, label %15, label %19

15:                                               ; preds = %12
  br label %16

16:                                               ; preds = %15
  br label %17

17:                                               ; preds = %16
  br label %18

18:                                               ; preds = %17
  br label %19

19:                                               ; preds = %18, %12, %7
  br label %20

20:                                               ; preds = %19
  br label %21

21:                                               ; preds = %20
  br label %22

22:                                               ; preds = %21
  br label %23

23:                                               ; preds = %22
  br label %24

24:                                               ; preds = %23
  %25 = load ptr, ptr %2, align 8
  %26 = getelementptr inbounds nuw %struct.request, ptr %25, i32 0, i32 6
  %27 = load ptr, ptr %26, align 8
  %28 = icmp ne ptr %27, null
  br i1 %28, label %29, label %56

29:                                               ; preds = %24
  %30 = load ptr, ptr %2, align 8
  %31 = load ptr, ptr %3, align 8
  %32 = getelementptr inbounds nuw %struct.evdns_base, ptr %31, i32 0, i32 0
  %33 = load ptr, ptr %32, align 8
  %34 = load ptr, ptr %2, align 8
  %35 = getelementptr inbounds nuw %struct.request, ptr %34, i32 0, i32 10
  %36 = load i16, ptr %35, align 8
  %37 = zext i16 %36 to i32
  %38 = load ptr, ptr %3, align 8
  %39 = getelementptr inbounds nuw %struct.evdns_base, ptr %38, i32 0, i32 3
  %40 = load i32, ptr %39, align 8
  %41 = srem i32 %37, %40
  %42 = sext i32 %41 to i64
  %43 = getelementptr inbounds ptr, ptr %33, i64 %42
  call void @evdns_request_insert(ptr noundef %30, ptr noundef %43)
  %44 = load ptr, ptr %3, align 8
  %45 = getelementptr inbounds nuw %struct.evdns_base, ptr %44, i32 0, i32 6
  %46 = load i32, ptr %45, align 4
  %47 = add nsw i32 %46, 1
  store i32 %47, ptr %45, align 4
  %48 = load ptr, ptr %2, align 8
  %49 = getelementptr inbounds nuw %struct.request, ptr %48, i32 0, i32 6
  %50 = load ptr, ptr %49, align 8
  %51 = getelementptr inbounds nuw %struct.nameserver, ptr %50, i32 0, i32 15
  %52 = load i32, ptr %51, align 8
  %53 = add nsw i32 %52, 1
  store i32 %53, ptr %51, align 8
  %54 = load ptr, ptr %2, align 8
  %55 = call i32 @evdns_request_transmit(ptr noundef %54)
  br label %64

56:                                               ; preds = %24
  %57 = load ptr, ptr %2, align 8
  %58 = load ptr, ptr %3, align 8
  %59 = getelementptr inbounds nuw %struct.evdns_base, ptr %58, i32 0, i32 1
  call void @evdns_request_insert(ptr noundef %57, ptr noundef %59)
  %60 = load ptr, ptr %3, align 8
  %61 = getelementptr inbounds nuw %struct.evdns_base, ptr %60, i32 0, i32 7
  %62 = load i32, ptr %61, align 8
  %63 = add nsw i32 %62, 1
  store i32 %63, ptr %61, align 8
  br label %64

64:                                               ; preds = %56, %29
  call void @llvm.lifetime.end.p0(i64 8, ptr %3) #10
  ret void
}

; Function Attrs: inlinehint nounwind uwtable
define internal i32 @__bswap_32(i32 noundef %0) #5 {
  %2 = alloca i32, align 4
  store i32 %0, ptr %2, align 4
  %3 = load i32, ptr %2, align 4
  %4 = and i32 %3, -16777216
  %5 = lshr i32 %4, 24
  %6 = load i32, ptr %2, align 4
  %7 = and i32 %6, 16711680
  %8 = lshr i32 %7, 8
  %9 = or i32 %5, %8
  %10 = load i32, ptr %2, align 4
  %11 = and i32 %10, 65280
  %12 = shl i32 %11, 8
  %13 = or i32 %9, %12
  %14 = load i32, ptr %2, align 4
  %15 = and i32 %14, 255
  %16 = shl i32 %15, 24
  %17 = or i32 %13, %16
  ret i32 %17
}

; Function Attrs: nounwind uwtable
define ptr @evdns_base_resolve_reverse(ptr noundef %0, ptr noundef %1, i32 noundef %2, ptr noundef %3, ptr noundef %4) #0 {
  %6 = alloca ptr, align 8
  %7 = alloca ptr, align 8
  %8 = alloca ptr, align 8
  %9 = alloca i32, align 4
  %10 = alloca ptr, align 8
  %11 = alloca ptr, align 8
  %12 = alloca [32 x i8], align 16
  %13 = alloca ptr, align 8
  %14 = alloca ptr, align 8
  %15 = alloca i32, align 4
  %16 = alloca i32, align 4
  store ptr %0, ptr %7, align 8
  store ptr %1, ptr %8, align 8
  store i32 %2, ptr %9, align 4
  store ptr %3, ptr %10, align 8
  store ptr %4, ptr %11, align 8
  call void @llvm.lifetime.start.p0(i64 32, ptr %12) #10
  call void @llvm.lifetime.start.p0(i64 8, ptr %13) #10
  call void @llvm.lifetime.start.p0(i64 8, ptr %14) #10
  call void @llvm.lifetime.start.p0(i64 4, ptr %15) #10
  br label %17

17:                                               ; preds = %5
  br label %18

18:                                               ; preds = %17
  br label %19

19:                                               ; preds = %18
  %20 = load ptr, ptr %8, align 8
  %21 = getelementptr inbounds nuw %struct.in_addr, ptr %20, i32 0, i32 0
  %22 = load i32, ptr %21, align 4
  %23 = call i32 @__bswap_32(i32 noundef %22)
  store i32 %23, ptr %15, align 4
  %24 = getelementptr inbounds [32 x i8], ptr %12, i64 0, i64 0
  %25 = load i32, ptr %15, align 4
  %26 = and i32 %25, 255
  %27 = trunc i32 %26 to i8
  %28 = zext i8 %27 to i32
  %29 = load i32, ptr %15, align 4
  %30 = lshr i32 %29, 8
  %31 = and i32 %30, 255
  %32 = trunc i32 %31 to i8
  %33 = zext i8 %32 to i32
  %34 = load i32, ptr %15, align 4
  %35 = lshr i32 %34, 16
  %36 = and i32 %35, 255
  %37 = trunc i32 %36 to i8
  %38 = zext i8 %37 to i32
  %39 = load i32, ptr %15, align 4
  %40 = lshr i32 %39, 24
  %41 = and i32 %40, 255
  %42 = trunc i32 %41 to i8
  %43 = zext i8 %42 to i32
  %44 = call i32 (ptr, i64, ptr, ...) @evutil_snprintf(ptr noundef %24, i64 noundef 32, ptr noundef @.str, i32 noundef %28, i32 noundef %33, i32 noundef %38, i32 noundef %43)
  %45 = call ptr @event_mm_calloc_(i64 noundef 1, i64 noundef 160)
  store ptr %45, ptr %13, align 8
  %46 = load ptr, ptr %13, align 8
  %47 = icmp eq ptr %46, null
  br i1 %47, label %48, label %49

48:                                               ; preds = %19
  store ptr null, ptr %6, align 8
  store i32 1, ptr %16, align 4
  br label %116

49:                                               ; preds = %19
  %50 = load ptr, ptr %10, align 8
  %51 = load ptr, ptr %13, align 8
  %52 = getelementptr inbounds nuw %struct.evdns_request, ptr %51, i32 0, i32 4
  store ptr %50, ptr %52, align 8
  %53 = load ptr, ptr %11, align 8
  %54 = load ptr, ptr %13, align 8
  %55 = getelementptr inbounds nuw %struct.evdns_request, ptr %54, i32 0, i32 5
  store ptr %53, ptr %55, align 8
  %56 = getelementptr inbounds [32 x i8], ptr %12, i64 0, i64 0
  call void (i32, ptr, ...) @evdns_log_(i32 noundef 0, ptr noundef @.str.4, ptr noundef %56)
  br label %57

57:                                               ; preds = %49
  %58 = load ptr, ptr %7, align 8
  %59 = getelementptr inbounds nuw %struct.evdns_base, ptr %58, i32 0, i32 30
  %60 = load ptr, ptr %59, align 8
  %61 = icmp ne ptr %60, null
  br i1 %61, label %62, label %68

62:                                               ; preds = %57
  %63 = load ptr, ptr getelementptr inbounds nuw (%struct.evthread_lock_callbacks, ptr @evthread_lock_fns_, i32 0, i32 4), align 8
  %64 = load ptr, ptr %7, align 8
  %65 = getelementptr inbounds nuw %struct.evdns_base, ptr %64, i32 0, i32 30
  %66 = load ptr, ptr %65, align 8
  %67 = call i32 %63(i32 noundef 0, ptr noundef %66)
  br label %68

68:                                               ; preds = %62, %57
  br label %69

69:                                               ; preds = %68
  br label %70

70:                                               ; preds = %69
  %71 = load ptr, ptr %7, align 8
  %72 = getelementptr inbounds nuw %struct.evdns_base, ptr %71, i32 0, i32 16
  %73 = load i16, ptr %72, align 8
  %74 = load ptr, ptr %13, align 8
  %75 = getelementptr inbounds nuw %struct.evdns_request, ptr %74, i32 0, i32 15
  store i16 %73, ptr %75, align 4
  %76 = load i32, ptr %9, align 4
  %77 = and i32 %76, 6
  %78 = load ptr, ptr %13, align 8
  %79 = getelementptr inbounds nuw %struct.evdns_request, ptr %78, i32 0, i32 15
  %80 = load i16, ptr %79, align 4
  %81 = zext i16 %80 to i32
  %82 = or i32 %81, %77
  %83 = trunc i32 %82 to i16
  store i16 %83, ptr %79, align 4
  %84 = load ptr, ptr %7, align 8
  %85 = load ptr, ptr %13, align 8
  %86 = getelementptr inbounds [32 x i8], ptr %12, i64 0, i64 0
  %87 = load i32, ptr %9, align 4
  %88 = call ptr @request_new(ptr noundef %84, ptr noundef %85, i32 noundef 12, ptr noundef %86, i32 noundef %87)
  store ptr %88, ptr %14, align 8
  %89 = load ptr, ptr %14, align 8
  %90 = icmp ne ptr %89, null
  br i1 %90, label %91, label %93

91:                                               ; preds = %70
  %92 = load ptr, ptr %14, align 8
  call void @request_submit(ptr noundef %92)
  br label %93

93:                                               ; preds = %91, %70
  %94 = load ptr, ptr %13, align 8
  %95 = getelementptr inbounds nuw %struct.evdns_request, ptr %94, i32 0, i32 0
  %96 = load ptr, ptr %95, align 8
  %97 = icmp eq ptr %96, null
  br i1 %97, label %98, label %100

98:                                               ; preds = %93
  %99 = load ptr, ptr %13, align 8
  call void @event_mm_free_(ptr noundef %99)
  store ptr null, ptr %13, align 8
  br label %100

100:                                              ; preds = %98, %93
  br label %101

101:                                              ; preds = %100
  %102 = load ptr, ptr %7, align 8
  %103 = getelementptr inbounds nuw %struct.evdns_base, ptr %102, i32 0, i32 30
  %104 = load ptr, ptr %103, align 8
  %105 = icmp ne ptr %104, null
  br i1 %105, label %106, label %112

106:                                              ; preds = %101
  %107 = load ptr, ptr getelementptr inbounds nuw (%struct.evthread_lock_callbacks, ptr @evthread_lock_fns_, i32 0, i32 5), align 8
  %108 = load ptr, ptr %7, align 8
  %109 = getelementptr inbounds nuw %struct.evdns_base, ptr %108, i32 0, i32 30
  %110 = load ptr, ptr %109, align 8
  %111 = call i32 %107(i32 noundef 0, ptr noundef %110)
  br label %112

112:                                              ; preds = %106, %101
  br label %113

113:                                              ; preds = %112
  br label %114

114:                                              ; preds = %113
  %115 = load ptr, ptr %13, align 8
  store ptr %115, ptr %6, align 8
  store i32 1, ptr %16, align 4
  br label %116

116:                                              ; preds = %114, %48
  call void @llvm.lifetime.end.p0(i64 4, ptr %15) #10
  call void @llvm.lifetime.end.p0(i64 8, ptr %14) #10
  call void @llvm.lifetime.end.p0(i64 8, ptr %13) #10
  call void @llvm.lifetime.end.p0(i64 32, ptr %12) #10
  %117 = load ptr, ptr %6, align 8
  ret ptr %117
}