; Function Attrs: nounwind uwtable
define ptr @evdns_base_resolve_reverse(ptr noundef %0, ptr noundef readonly captures(none) %1, i32 noundef %2, ptr noundef %3, ptr noundef %4) local_unnamed_addr #2 {
  %6 = alloca [32 x i8], align 16
  call void @llvm.lifetime.start.p0(i64 32, ptr nonnull %6) #21
  %7 = load i32, ptr %1, align 4
  %8 = tail call noundef i32 @llvm.bswap.i32(i32 %7)
  %9 = and i32 %8, 255
  %10 = lshr i32 %8, 8
  %11 = and i32 %10, 255
  %12 = lshr i32 %8, 16
  %13 = and i32 %12, 255
  %14 = lshr i32 %8, 24
  %15 = call i32 (ptr, i64, ptr, ...) @evutil_snprintf(ptr noundef nonnull %6, i64 noundef 32, ptr noundef nonnull @.str, i32 noundef %9, i32 noundef %11, i32 noundef %13, i32 noundef %14) #21
  %16 = call ptr @event_mm_calloc_(i64 noundef 1, i64 noundef 160) #21
  %17 = icmp eq ptr %16, null
  br i1 %17, label %93, label %18

18:                                               ; preds = %5
  %19 = getelementptr inbounds nuw i8, ptr %16, i64 64
  store ptr %3, ptr %19, align 8
  %20 = getelementptr inbounds nuw i8, ptr %16, i64 72
  store ptr %4, ptr %20, align 8
  call void (i32, ptr, ...) @evdns_log_(i32 noundef 0, ptr noundef nonnull @.str.4, ptr noundef nonnull %6)
  %21 = getelementptr inbounds nuw i8, ptr %0, i64 344
  %22 = load ptr, ptr %21, align 8
  %.not = icmp eq ptr %22, null
  br i1 %.not, label %26, label %23

23:                                               ; preds = %18
  %24 = load ptr, ptr getelementptr inbounds nuw (i8, ptr @evthread_lock_fns_, i64 24), align 8
  %25 = call i32 %24(i32 noundef 0, ptr noundef nonnull %22) #21
  br label %26

26:                                               ; preds = %23, %18
  %27 = getelementptr inbounds nuw i8, ptr %0, i64 112
  %28 = load i16, ptr %27, align 8
  %29 = getelementptr inbounds nuw i8, ptr %16, i64 156
  %30 = trunc i32 %2 to i16
  %31 = and i16 %30, 6
  %32 = or i16 %28, %31
  store i16 %32, ptr %29, align 4
  %33 = call fastcc ptr @request_new(ptr noundef nonnull %0, ptr noundef nonnull %16, i32 noundef 12, ptr noundef nonnull %6, i32 noundef %2)
  %.not31 = icmp eq ptr %33, null
  br i1 %.not31, label %request_submit.exit, label %34

34:                                               ; preds = %26
  %35 = getelementptr inbounds nuw i8, ptr %33, i64 184
  %36 = load ptr, ptr %35, align 8
  %37 = getelementptr inbounds nuw i8, ptr %33, i64 24
  %38 = load ptr, ptr %37, align 8
  %.not.i = icmp eq ptr %38, null
  br i1 %.not.i, label %68, label %39

39:                                               ; preds = %34
  %40 = load ptr, ptr %36, align 8
  %41 = getelementptr inbounds nuw i8, ptr %33, i64 168
  %42 = load i16, ptr %41, align 8
  %43 = zext i16 %42 to i32
  %44 = getelementptr inbounds nuw i8, ptr %36, i64 24
  %45 = load i32, ptr %44, align 8
  %46 = srem i32 %43, %45
  %47 = zext nneg i32 %46 to i64
  %48 = getelementptr inbounds nuw ptr, ptr %40, i64 %47
  %49 = load ptr, ptr %48, align 8
  %.not.i.i = icmp eq ptr %49, null
  br i1 %.not.i.i, label %50, label %53

50:                                               ; preds = %39
  store ptr %33, ptr %48, align 8
  %51 = getelementptr inbounds nuw i8, ptr %33, i64 40
  store ptr %33, ptr %51, align 8
  %52 = getelementptr inbounds nuw i8, ptr %33, i64 32
  store ptr %33, ptr %52, align 8
  br label %evdns_request_insert.exit.i

53:                                               ; preds = %39
  %54 = getelementptr inbounds nuw i8, ptr %49, i64 40
  %55 = load ptr, ptr %54, align 8
  %56 = getelementptr inbounds nuw i8, ptr %33, i64 40
  store ptr %55, ptr %56, align 8
  %57 = getelementptr inbounds nuw i8, ptr %55, i64 32
  store ptr %33, ptr %57, align 8
  %58 = load ptr, ptr %48, align 8
  %59 = getelementptr inbounds nuw i8, ptr %33, i64 32
  store ptr %58, ptr %59, align 8
  %60 = getelementptr inbounds nuw i8, ptr %58, i64 40
  store ptr %33, ptr %60, align 8
  br label %evdns_request_insert.exit.i

evdns_request_insert.exit.i:                      ; preds = %53, %50
  %61 = getelementptr inbounds nuw i8, ptr %36, i64 44
  %62 = load i32, ptr %61, align 4
  %63 = add nsw i32 %62, 1
  store i32 %63, ptr %61, align 4
  %64 = load ptr, ptr %37, align 8
  %65 = getelementptr inbounds nuw i8, ptr %64, i64 440
  %66 = load i32, ptr %65, align 8
  %67 = add nsw i32 %66, 1
  store i32 %67, ptr %65, align 8
  call fastcc void @evdns_request_transmit(ptr noundef nonnull %33)
  br label %request_submit.exit

68:                                               ; preds = %34
  %69 = getelementptr inbounds nuw i8, ptr %36, i64 8
  %70 = load ptr, ptr %69, align 8
  %.not.i14.i = icmp eq ptr %70, null
  br i1 %.not.i14.i, label %71, label %74

71:                                               ; preds = %68
  store ptr %33, ptr %69, align 8
  %72 = getelementptr inbounds nuw i8, ptr %33, i64 40
  store ptr %33, ptr %72, align 8
  %73 = getelementptr inbounds nuw i8, ptr %33, i64 32
  store ptr %33, ptr %73, align 8
  br label %evdns_request_insert.exit15.i

74:                                               ; preds = %68
  %75 = getelementptr inbounds nuw i8, ptr %70, i64 40
  %76 = load ptr, ptr %75, align 8
  %77 = getelementptr inbounds nuw i8, ptr %33, i64 40
  store ptr %76, ptr %77, align 8
  %78 = getelementptr inbounds nuw i8, ptr %76, i64 32
  store ptr %33, ptr %78, align 8
  %79 = load ptr, ptr %69, align 8
  %80 = getelementptr inbounds nuw i8, ptr %33, i64 32
  store ptr %79, ptr %80, align 8
  %81 = getelementptr inbounds nuw i8, ptr %79, i64 40
  store ptr %33, ptr %81, align 8
  br label %evdns_request_insert.exit15.i

evdns_request_insert.exit15.i:                    ; preds = %74, %71
  %82 = getelementptr inbounds nuw i8, ptr %36, i64 48
  %83 = load i32, ptr %82, align 8
  %84 = add nsw i32 %83, 1
  store i32 %84, ptr %82, align 8
  br label %request_submit.exit

request_submit.exit:                              ; preds = %evdns_request_insert.exit15.i, %evdns_request_insert.exit.i, %26
  %85 = load ptr, ptr %16, align 8
  %86 = icmp eq ptr %85, null
  br i1 %86, label %87, label %88

87:                                               ; preds = %request_submit.exit
  call void @event_mm_free_(ptr noundef nonnull %16) #21
  br label %88

88:                                               ; preds = %request_submit.exit, %87
  %.026 = phi ptr [ null, %87 ], [ %16, %request_submit.exit ]
  %89 = load ptr, ptr %21, align 8
  %.not32 = icmp eq ptr %89, null
  br i1 %.not32, label %93, label %90

90:                                               ; preds = %88
  %91 = load ptr, ptr getelementptr inbounds nuw (i8, ptr @evthread_lock_fns_, i64 32), align 8
  %92 = call i32 %91(i32 noundef 0, ptr noundef nonnull %89) #21
  br label %93

93:                                               ; preds = %88, %90, %5
  %.0 = phi ptr [ null, %5 ], [ %.026, %90 ], [ %.026, %88 ]
  call void @llvm.lifetime.end.p0(i64 32, ptr nonnull %6) #21
  ret ptr %.0
}